; Function Attrs: nofree nounwind memory(read, inaccessiblemem: none) uwtable
define dso_local i32 @str_findlist(ptr nocapture noundef readonly %0, i32 noundef %1, ptr nocapture noundef readonly %2) local_unnamed_addr #0 {
  %.not = icmp eq i32 %1, 0
  br i1 %.not, label %._crit_edge, label %.lr.ph.preheader

.lr.ph.preheader:                                 ; preds = %3
  %wide.trip.count = zext i32 %1 to i64
  br label %.lr.ph

.lr.ph:                                           ; preds = %.lr.ph.preheader, %8
  %indvars.iv = phi i64 [ 0, %.lr.ph.preheader ], [ %indvars.iv.next, %8 ]
  %4 = getelementptr inbounds ptr, ptr %2, i64 %indvars.iv
  %5 = load ptr, ptr %4, align 8
  %6 = tail call i32 @strcmp(ptr noundef nonnull dereferenceable(1) %0, ptr noundef nonnull dereferenceable(1) %5) #20
  %7 = icmp eq i32 %6, 0
  br i1 %7, label %._crit_edge.loopexit.split.loop.exit12, label %8

8:                                                ; preds = %.lr.ph
  %indvars.iv.next = add nuw nsw i64 %indvars.iv, 1
  %exitcond.not = icmp eq i64 %indvars.iv.next, %wide.trip.count
  br i1 %exitcond.not, label %._crit_edge, label %.lr.ph, !llvm.loop !7

._crit_edge.loopexit.split.loop.exit12:           ; preds = %.lr.ph
  %9 = trunc nuw i64 %indvars.iv to i32
  br label %._crit_edge

._crit_edge:                                      ; preds = %8, %._crit_edge.loopexit.split.loop.exit12, %3
  %.07 = phi i32 [ -1, %3 ], [ %9, %._crit_edge.loopexit.split.loop.exit12 ], [ -1, %8 ]
  ret i32 %.07
}